; Function Attrs: nounwind uwtable
define zeroext range(i8 0, 2) i8 @l___private_Lean_Compiler_LCNF_DependsOn_0__Lean_Compiler_LCNF_argDepOn(ptr noundef %0, ptr noundef %1) local_unnamed_addr #0 {
  %3 = ptrtoint ptr %0 to i64
  %4 = and i64 %3, 1
  %.not.i = icmp eq i64 %4, 0
  br i1 %.not.i, label %8, label %5

5:                                                ; preds = %2
  %6 = lshr i64 %3, 1
  %7 = trunc i64 %6 to i32
  br label %lean_obj_tag.exit

8:                                                ; preds = %2
  %9 = getelementptr i8, ptr %0, i64 4
  %.val.i = load i32, ptr %9, align 4
  %10 = lshr i32 %.val.i, 24
  br label %lean_obj_tag.exit

lean_obj_tag.exit:                                ; preds = %5, %8
  %.0.i = phi i32 [ %7, %5 ], [ %10, %8 ]
  switch i32 %.0.i, label %27 [
    i32 0, label %l___private_Lean_Compiler_LCNF_DependsOn_0__Lean_Compiler_LCNF_fvarDepOn.exit
    i32 1, label %11
  ]

11:                                               ; preds = %lean_obj_tag.exit
  %12 = getelementptr inbounds nuw i8, ptr %0, i64 8
  %13 = load ptr, ptr %12, align 8, !tbaa !10
  %14 = tail call ptr @l_Lean_RBNode_findCore___at___private_Lean_Meta_FunInfo_0__Lean_Meta_getFunInfoAux___spec__2(ptr noundef %1, ptr noundef %13) #3
  %15 = ptrtoint ptr %14 to i64
  %16 = and i64 %15, 1
  %.not.i6.i = icmp eq i64 %16, 0
  br i1 %.not.i6.i, label %lean_obj_tag.exit.thread.i, label %lean_obj_tag.exit.i

lean_obj_tag.exit.i:                              ; preds = %11
  %17 = and i64 %15, 8589934590
  %18 = icmp ne i64 %17, 0
  %spec.select.i = zext i1 %18 to i8
  br label %l___private_Lean_Compiler_LCNF_DependsOn_0__Lean_Compiler_LCNF_fvarDepOn.exit

lean_obj_tag.exit.thread.i:                       ; preds = %11
  %19 = getelementptr i8, ptr %14, i64 4
  %.val.i.i = load i32, ptr %19, align 4
  %20 = icmp ult i32 %.val.i.i, 16777216
  br i1 %20, label %l___private_Lean_Compiler_LCNF_DependsOn_0__Lean_Compiler_LCNF_fvarDepOn.exit, label %.thread.i

.thread.i:                                        ; preds = %lean_obj_tag.exit.thread.i
  %21 = load i32, ptr %14, align 4, !tbaa !4
  %22 = icmp sgt i32 %21, 1
  br i1 %22, label %23, label %25, !prof !9

23:                                               ; preds = %.thread.i
  %24 = add nsw i32 %21, -1
  store i32 %24, ptr %14, align 4, !tbaa !4
  br label %l___private_Lean_Compiler_LCNF_DependsOn_0__Lean_Compiler_LCNF_fvarDepOn.exit

25:                                               ; preds = %.thread.i
  %.not.i.i = icmp eq i32 %21, 0
  br i1 %.not.i.i, label %l___private_Lean_Compiler_LCNF_DependsOn_0__Lean_Compiler_LCNF_fvarDepOn.exit, label %26

26:                                               ; preds = %25
  tail call void @lean_dec_ref_cold(ptr noundef nonnull %14) #3
  br label %l___private_Lean_Compiler_LCNF_DependsOn_0__Lean_Compiler_LCNF_fvarDepOn.exit

27:                                               ; preds = %lean_obj_tag.exit
  %28 = getelementptr inbounds nuw i8, ptr %0, i64 8
  %29 = load ptr, ptr %28, align 8, !tbaa !10
  %30 = tail call zeroext i8 @l_Lean_Expr_hasAnyFVar_visit___at___private_Lean_Compiler_LCNF_DependsOn_0__Lean_Compiler_LCNF_typeDepOn___spec__1(ptr noundef %1, ptr noundef %29)
  br label %l___private_Lean_Compiler_LCNF_DependsOn_0__Lean_Compiler_LCNF_fvarDepOn.exit

l___private_Lean_Compiler_LCNF_DependsOn_0__Lean_Compiler_LCNF_fvarDepOn.exit: ; preds = %26, %25, %23, %lean_obj_tag.exit.thread.i, %lean_obj_tag.exit.i, %lean_obj_tag.exit, %27
  %.0 = phi i8 [ %30, %27 ], [ 0, %lean_obj_tag.exit ], [ 0, %lean_obj_tag.exit.thread.i ], [ 1, %26 ], [ 1, %25 ], [ 1, %23 ], [ %spec.select.i, %lean_obj_tag.exit.i ]
  ret i8 %.0
}